target datalayout = "e-m:e-p270:32:32-p271:32:32-p272:64:64-i64:64-i128:128-f80:128-n8:16:32:64-S128"
target triple = "x86_64-pc-linux-gnu"

@_ZN5cmsysL23SystemToolsManagerCountE = internal global i32 0, align 4
@_ZN5cmsysL18SystemToolsStaticsE = internal global ptr null, align 8

; Function Attrs: mustprogress uwtable
define dso_local void @_ZN5cmsys11SystemTools15ClassInitializeEv() #7 align 2 {
  %1 = call noalias noundef nonnull ptr @_Znwm(i64 noundef 1) #25
  store ptr %1, ptr @_ZN5cmsysL18SystemToolsStaticsE, align 8, !tbaa !179
  ret void
}

; Function Attrs: mustprogress uwtable
define dso_local void @_ZN5cmsys18SystemToolsManagerC2Ev(ptr noundef nonnull align 1 dereferenceable(1) %0) unnamed_addr #7 align 2 {
  %2 = alloca ptr, align 8
  store ptr %0, ptr %2, align 8, !tbaa !177
  %3 = load i32, ptr @_ZN5cmsysL23SystemToolsManagerCountE, align 4, !tbaa !41
  %4 = add i32 %3, 1
  store i32 %4, ptr @_ZN5cmsysL23SystemToolsManagerCountE, align 4, !tbaa !41
  %5 = icmp eq i32 %4, 1
  br i1 %5, label %6, label %7

6:                                                ; preds = %1
  call void @_ZN5cmsys11SystemTools15ClassInitializeEv()
  br label %7

7:                                                ; preds = %6, %1
  ret void
}