; Function Attrs: mustprogress uwtable
define dso_local void @_ZN5cmsys18SystemToolsManagerC2Ev(ptr nonnull readnone align 1 captures(none) %0) unnamed_addr #6 align 2 {
  %2 = load i32, ptr @_ZN5cmsysL23SystemToolsManagerCountE, align 4, !tbaa !42
  %3 = add i32 %2, 1
  store i32 %3, ptr @_ZN5cmsysL23SystemToolsManagerCountE, align 4, !tbaa !42
  %4 = icmp eq i32 %2, 0
  br i1 %4, label %5, label %7

5:                                                ; preds = %1
  %6 = tail call noalias noundef nonnull dereferenceable(1) ptr @_Znwm(i64 noundef 1) #44
  store ptr %6, ptr @_ZN5cmsysL18SystemToolsStaticsE, align 8, !tbaa !276
  br label %7

7:                                                ; preds = %5, %1
  ret void
}